target datalayout = "e-m:e-p270:32:32-p271:32:32-p272:64:64-i64:64-i128:128-f80:128-n8:16:32:64-S128"
target triple = "x86_64-unknown-linux-gnu"

%struct.Property = type { ptr, ptr, i64, i8, i64, i8, %union.anon, i32, ptr, i32, ptr }
%union.anon = type { i64 }

@.str = private unnamed_addr constant [34 x i8] c"../qemu/hw/core/qdev-properties.c\00", align 1
@__func__.set_size32 = private unnamed_addr constant [11 x i8] c"set_size32\00", align 1
@.str.31 = private unnamed_addr constant [52 x i8] c"Property %s.%s doesn't take value %lu (maximum: %u)\00", align 1

; Function Attrs: nounwind sspstrong uwtable
define dso_local ptr @object_field_prop_ptr(ptr noundef %obj, ptr noundef %prop) #0 {
entry:
  %obj.addr = alloca ptr, align 8
  %prop.addr = alloca ptr, align 8
  %ptr = alloca ptr, align 8
  store ptr %obj, ptr %obj.addr, align 8
  store ptr %prop, ptr %prop.addr, align 8
  %0 = load ptr, ptr %obj.addr, align 8
  store ptr %0, ptr %ptr, align 8
  %1 = load ptr, ptr %prop.addr, align 8
  %offset = getelementptr inbounds %struct.Property, ptr %1, i32 0, i32 2
  %2 = load i64, ptr %offset, align 8
  %3 = load ptr, ptr %ptr, align 8
  %add.ptr = getelementptr i8, ptr %3, i64 %2
  store ptr %add.ptr, ptr %ptr, align 8
  %4 = load ptr, ptr %ptr, align 8
  ret ptr %4
}

; Function Attrs: nounwind sspstrong uwtable
define internal void @set_size32(ptr noundef %obj, ptr noundef %v, ptr noundef %name, ptr noundef %opaque, ptr noundef %errp) #0 {
entry:
  %obj.addr = alloca ptr, align 8
  %v.addr = alloca ptr, align 8
  %name.addr = alloca ptr, align 8
  %opaque.addr = alloca ptr, align 8
  %errp.addr = alloca ptr, align 8
  %prop = alloca ptr, align 8
  %ptr = alloca ptr, align 8
  %value = alloca i64, align 8
  store ptr %obj, ptr %obj.addr, align 8
  store ptr %v, ptr %v.addr, align 8
  store ptr %name, ptr %name.addr, align 8
  store ptr %opaque, ptr %opaque.addr, align 8
  store ptr %errp, ptr %errp.addr, align 8
  %0 = load ptr, ptr %opaque.addr, align 8
  store ptr %0, ptr %prop, align 8
  %1 = load ptr, ptr %obj.addr, align 8
  %2 = load ptr, ptr %prop, align 8
  %call = call ptr @object_field_prop_ptr(ptr noundef %1, ptr noundef %2)
  store ptr %call, ptr %ptr, align 8
  %3 = load ptr, ptr %v.addr, align 8
  %4 = load ptr, ptr %name.addr, align 8
  %5 = load ptr, ptr %errp.addr, align 8
  %call1 = call zeroext i1 @visit_type_size(ptr noundef %3, ptr noundef %4, ptr noundef %value, ptr noundef %5)
  br i1 %call1, label %if.end, label %if.then

if.then:                                          ; preds = %entry
  br label %return

if.end:                                           ; preds = %entry
  %6 = load i64, ptr %value, align 8
  %cmp = icmp ugt i64 %6, 4294967295
  br i1 %cmp, label %if.then2, label %if.end4

if.then2:                                         ; preds = %if.end
  %7 = load ptr, ptr %errp.addr, align 8
  %8 = load ptr, ptr %obj.addr, align 8
  %call3 = call ptr @object_get_typename(ptr noundef %8)
  %9 = load ptr, ptr %name.addr, align 8
  %10 = load i64, ptr %value, align 8
  call void (ptr, ptr, i32, ptr, ptr, ...) @error_setg_internal(ptr noundef %7, ptr noundef @.str, i32 noundef 533, ptr noundef @__func__.set_size32, ptr noundef @.str.31, ptr noundef %call3, ptr noundef %9, i64 noundef %10, i32 noundef -1)
  br label %return

if.end4:                                          ; preds = %if.end
  %11 = load i64, ptr %value, align 8
  %conv = trunc i64 %11 to i32
  %12 = load ptr, ptr %ptr, align 8
  store i32 %conv, ptr %12, align 4
  br label %return

return:                                           ; preds = %if.end4, %if.then2, %if.then
  ret void
}