; Function Attrs: nounwind sspstrong uwtable
define internal void @set_size32(ptr noundef %obj, ptr noundef %v, ptr noundef %name, ptr noundef readonly captures(none) %opaque, ptr noundef %errp) #0 {
entry:
  %value = alloca i64, align 8
  %offset.i = getelementptr inbounds nuw i8, ptr %opaque, i64 16
  %0 = load i64, ptr %offset.i, align 8
  %add.ptr.i = getelementptr i8, ptr %obj, i64 %0
  %call1 = call zeroext i1 @visit_type_size(ptr noundef %v, ptr noundef %name, ptr noundef nonnull %value, ptr noundef %errp) #9
  br i1 %call1, label %if.end, label %return

if.end:                                           ; preds = %entry
  %1 = load i64, ptr %value, align 8
  %cmp = icmp ugt i64 %1, 4294967295
  br i1 %cmp, label %if.then2, label %if.end4

if.then2:                                         ; preds = %if.end
  %call3 = call ptr @object_get_typename(ptr noundef %obj) #9
  %2 = load i64, ptr %value, align 8
  call void (ptr, ptr, i32, ptr, ptr, ...) @error_setg_internal(ptr noundef %errp, ptr noundef nonnull @.str, i32 noundef 533, ptr noundef nonnull @__func__.set_size32, ptr noundef nonnull @.str.31, ptr noundef %call3, ptr noundef %name, i64 noundef %2, i32 noundef -1) #9
  br label %return

if.end4:                                          ; preds = %if.end
  %conv = trunc nuw i64 %1 to i32
  store i32 %conv, ptr %add.ptr.i, align 4
  br label %return

return:                                           ; preds = %entry, %if.end4, %if.then2
  ret void
}